target datalayout = "e-m:e-p270:32:32-p271:32:32-p272:64:64-i64:64-i128:128-f80:128-n8:16:32:64-S128"
target triple = "x86_64-pc-linux-gnu"

%class.Node = type <{ ptr, ptr, ptr, i32, i32, i32, i32, i32, i32, i32, [4 x i8] }>
%class.MachNode = type { %class.Node.base, i8, i16, ptr }
%class.Node.base = type <{ ptr, ptr, ptr, i32, i32, i32, i32, i32, i32, i32 }>

; Function Attrs: mustprogress nounwind uwtable
define linkonce_odr hidden noundef ptr @_ZNK4Node2inEj(ptr noundef nonnull align 8 dereferenceable(52) %0, i32 noundef %1) #1 comdat align 2 {
  %3 = alloca ptr, align 8
  %4 = alloca i32, align 4
  store ptr %0, ptr %3, align 8
  store i32 %1, ptr %4, align 4
  %5 = load ptr, ptr %3, align 8
  %6 = getelementptr inbounds %class.Node, ptr %5, i32 0, i32 1
  %7 = load ptr, ptr %6, align 8
  %8 = load i32, ptr %4, align 4
  %9 = zext i32 %8 to i64
  %10 = getelementptr inbounds ptr, ptr %7, i64 %9
  %11 = load ptr, ptr %10, align 8
  ret ptr %11
}

; Function Attrs: mustprogress nounwind uwtable
define linkonce_odr hidden noundef zeroext i16 @_ZNK8MachNode9num_opndsEv(ptr noundef nonnull align 8 dereferenceable(64) %0) #1 comdat align 2 {
  %2 = alloca ptr, align 8
  store ptr %0, ptr %2, align 8
  %3 = load ptr, ptr %2, align 8
  %4 = getelementptr inbounds %class.MachNode, ptr %3, i32 0, i32 2
  %5 = load i16, ptr %4, align 2
  ret i16 %5
}

; Function Attrs: mustprogress nounwind uwtable
define hidden noundef i32 @_ZNK8MachNode13operand_indexEP4Node(ptr noundef nonnull align 8 dereferenceable(64) %0, ptr noundef %1) #1 align 2 {
  %3 = alloca i32, align 4
  %4 = alloca ptr, align 8
  %5 = alloca ptr, align 8
  %6 = alloca i32, align 4
  %7 = alloca i32, align 4
  %8 = alloca i32, align 4
  %9 = alloca i32, align 4
  store ptr %0, ptr %4, align 8
  store ptr %1, ptr %5, align 8
  %10 = load ptr, ptr %4, align 8
  %11 = load ptr, ptr %10, align 8
  %12 = getelementptr inbounds ptr, ptr %11, i64 25
  %13 = load ptr, ptr %12, align 8
  %14 = call noundef i32 %13(ptr noundef nonnull align 8 dereferenceable(64) %10)
  store i32 %14, ptr %6, align 4
  store i32 1, ptr %7, align 4
  br label %15

15:                                               ; preds = %52, %2
  %16 = load i32, ptr %7, align 4
  %17 = call noundef zeroext i16 @_ZNK8MachNode9num_opndsEv(ptr noundef nonnull align 8 dereferenceable(64) %10)
  %18 = zext i16 %17 to i32
  %19 = icmp ult i32 %16, %18
  br i1 %19, label %20, label %55

20:                                               ; preds = %15
  %21 = getelementptr inbounds %class.MachNode, ptr %10, i32 0, i32 3
  %22 = load ptr, ptr %21, align 8
  %23 = load i32, ptr %7, align 4
  %24 = zext i32 %23 to i64
  %25 = getelementptr inbounds ptr, ptr %22, i64 %24
  %26 = load ptr, ptr %25, align 8
  %27 = load ptr, ptr %26, align 8
  %28 = getelementptr inbounds ptr, ptr %27, i64 1
  %29 = load ptr, ptr %28, align 8
  %30 = call noundef i32 %29(ptr noundef nonnull align 8 dereferenceable(8) %26)
  store i32 %30, ptr %8, align 4
  store i32 0, ptr %9, align 4
  br label %31

31:                                               ; preds = %45, %20
  %32 = load i32, ptr %9, align 4
  %33 = load i32, ptr %8, align 4
  %34 = icmp ult i32 %32, %33
  br i1 %34, label %35, label %48

35:                                               ; preds = %31
  %36 = load i32, ptr %6, align 4
  %37 = load i32, ptr %9, align 4
  %38 = add i32 %36, %37
  %39 = call noundef ptr @_ZNK4Node2inEj(ptr noundef nonnull align 8 dereferenceable(52) %10, i32 noundef %38)
  %40 = load ptr, ptr %5, align 8
  %41 = icmp eq ptr %39, %40
  br i1 %41, label %42, label %44

42:                                               ; preds = %35
  %43 = load i32, ptr %7, align 4
  store i32 %43, ptr %3, align 4
  br label %56

44:                                               ; preds = %35
  br label %45

45:                                               ; preds = %44
  %46 = load i32, ptr %9, align 4
  %47 = add i32 %46, 1
  store i32 %47, ptr %9, align 4
  br label %31, !llvm.loop !15

48:                                               ; preds = %31
  %49 = load i32, ptr %8, align 4
  %50 = load i32, ptr %6, align 4
  %51 = add i32 %50, %49
  store i32 %51, ptr %6, align 4
  br label %52

52:                                               ; preds = %48
  %53 = load i32, ptr %7, align 4
  %54 = add i32 %53, 1
  store i32 %54, ptr %7, align 4
  br label %15, !llvm.loop !16

55:                                               ; preds = %15
  store i32 -1, ptr %3, align 4
  br label %56

56:                                               ; preds = %55, %42
  %57 = load i32, ptr %3, align 4
  ret i32 %57
}