; Function Attrs: mustprogress nounwind uwtable
define hidden noundef i32 @_ZNK8MachNode13operand_indexEP4Node(ptr noundef nonnull align 8 dereferenceable(64) %0, ptr noundef readnone %1) local_unnamed_addr #6 align 2 {
  %3 = load ptr, ptr %0, align 8
  %4 = getelementptr inbounds i8, ptr %3, i64 200
  %5 = load ptr, ptr %4, align 8
  %6 = tail call noundef i32 %5(ptr noundef nonnull align 8 dereferenceable(64) %0) #13
  %7 = getelementptr inbounds i8, ptr %0, i64 54
  %8 = load i16, ptr %7, align 2
  %9 = icmp ugt i16 %8, 1
  br i1 %9, label %.lr.ph23, label %.loopexit

.lr.ph23:                                         ; preds = %2
  %10 = getelementptr inbounds i8, ptr %0, i64 56
  %11 = getelementptr inbounds i8, ptr %0, i64 8
  br label %12

12:                                               ; preds = %.lr.ph23, %._crit_edge
  %indvars.iv27 = phi i64 [ 1, %.lr.ph23 ], [ %indvars.iv.next28, %._crit_edge ]
  %.01520 = phi i32 [ %6, %.lr.ph23 ], [ %29, %._crit_edge ]
  %13 = load ptr, ptr %10, align 8
  %14 = getelementptr inbounds ptr, ptr %13, i64 %indvars.iv27
  %15 = load ptr, ptr %14, align 8
  %16 = load ptr, ptr %15, align 8
  %17 = getelementptr inbounds i8, ptr %16, i64 8
  %18 = load ptr, ptr %17, align 8
  %19 = tail call noundef i32 %18(ptr noundef nonnull align 8 dereferenceable(8) %15) #13
  %.not = icmp eq i32 %19, 0
  br i1 %.not, label %._crit_edge, label %.lr.ph

.lr.ph:                                           ; preds = %12
  %20 = load ptr, ptr %11, align 8
  %wide.trip.count = zext i32 %19 to i64
  br label %22

21:                                               ; preds = %22
  %indvars.iv.next = add nuw nsw i64 %indvars.iv, 1
  %exitcond.not = icmp eq i64 %indvars.iv.next, %wide.trip.count
  br i1 %exitcond.not, label %._crit_edge, label %22, !llvm.loop !15

22:                                               ; preds = %.lr.ph, %21
  %indvars.iv = phi i64 [ 0, %.lr.ph ], [ %indvars.iv.next, %21 ]
  %23 = trunc nuw i64 %indvars.iv to i32
  %24 = add i32 %.01520, %23
  %25 = zext i32 %24 to i64
  %26 = getelementptr inbounds ptr, ptr %20, i64 %25
  %27 = load ptr, ptr %26, align 8
  %28 = icmp eq ptr %27, %1
  br i1 %28, label %.loopexit.loopexit, label %21

._crit_edge:                                      ; preds = %21, %12
  %29 = add i32 %19, %.01520
  %indvars.iv.next28 = add nuw nsw i64 %indvars.iv27, 1
  %30 = load i16, ptr %7, align 2
  %31 = zext i16 %30 to i64
  %32 = icmp ult i64 %indvars.iv.next28, %31
  br i1 %32, label %12, label %.loopexit, !llvm.loop !16

.loopexit.loopexit:                               ; preds = %22
  %33 = trunc nuw nsw i64 %indvars.iv27 to i32
  br label %.loopexit

.loopexit:                                        ; preds = %._crit_edge, %.loopexit.loopexit, %2
  %.013 = phi i32 [ -1, %2 ], [ %33, %.loopexit.loopexit ], [ -1, %._crit_edge ]
  ret i32 %.013
}